target datalayout = "e-m:e-p270:32:32-p271:32:32-p272:64:64-i64:64-i128:128-f80:128-n8:16:32:64-S128"
target triple = "x86_64-pc-linux-gnu"

%struct.H5FD_splitter_fapl_t = type { i64, i64, [4097 x i8], [4097 x i8], i8 }
%struct.H5FD_splitter_t = type { %struct.H5FD_t, i32, %struct.H5FD_splitter_fapl_t, ptr, ptr, ptr }
%struct.H5FD_t = type { i64, ptr, i64, i32, i64, i64, i64, i64, i64, i8 }

@H5FD_init_g = external global i8, align 1
@H5_libterm_g = external global i8, align 1
@.str = private unnamed_addr constant [106 x i8] c"generated/home/dtcxzyw/WorkSpace/Projects/compilers/llvm-opt-benchmark/bench/hdf5/hdf5/src/H5FDsplitter.c\00", align 1
@H5E_VFL_g = external global i64, align 8
@H5E_CANTSET_g = external global i64, align 8
@__func__.H5FD__splitter_set_eoa = private unnamed_addr constant [23 x i8] c"H5FD__splitter_set_eoa\00", align 1
@.str.52 = private unnamed_addr constant [32 x i8] c"H5FDset_eoa failed for R/W file\00", align 1
@.str.53 = private unnamed_addr constant [31 x i8] c"unable to set EOA for W/O file\00", align 1

; Function Attrs: nounwind uwtable
define internal i32 @H5FD__splitter_set_eoa(ptr noundef %0, i32 noundef %1, i64 noundef %2) #0 {
  %4 = alloca ptr, align 8
  %5 = alloca i32, align 4
  %6 = alloca i64, align 8
  %7 = alloca ptr, align 8
  %8 = alloca i32, align 4
  %9 = alloca i8, align 1
  store ptr %0, ptr %4, align 8, !tbaa !38
  store i32 %1, ptr %5, align 4, !tbaa !3
  store i64 %2, ptr %6, align 8, !tbaa !11
  call void @llvm.lifetime.start.p0(i64 8, ptr %7) #10
  %10 = load ptr, ptr %4, align 8, !tbaa !38
  store ptr %10, ptr %7, align 8, !tbaa !40
  call void @llvm.lifetime.start.p0(i64 4, ptr %8) #10
  store i32 0, ptr %8, align 4, !tbaa !3
  call void @llvm.lifetime.start.p0(i64 1, ptr %9) #10
  store i8 0, ptr %9, align 1, !tbaa !7
  %11 = load i8, ptr @H5FD_init_g, align 1, !tbaa !7, !range !9, !noundef !10
  %12 = trunc i8 %11 to i1
  br i1 %12, label %17, label %13

13:                                               ; preds = %3
  %14 = load i8, ptr @H5_libterm_g, align 1, !tbaa !7, !range !9, !noundef !10
  %15 = trunc i8 %14 to i1
  %16 = xor i1 %15, true
  br label %17

17:                                               ; preds = %13, %3
  %18 = phi i1 [ true, %3 ], [ %16, %13 ]
  %19 = xor i1 %18, true
  %20 = xor i1 %19, true
  %21 = zext i1 %20 to i32
  %22 = sext i32 %21 to i64
  %23 = call i64 @llvm.expect.i64(i64 %22, i64 1)
  %24 = icmp ne i64 %23, 0
  br i1 %24, label %25, label %92

25:                                               ; preds = %17
  %26 = load ptr, ptr %7, align 8, !tbaa !40
  %27 = getelementptr inbounds nuw %struct.H5FD_splitter_t, ptr %26, i32 0, i32 3
  %28 = load ptr, ptr %27, align 8, !tbaa !42
  %29 = load i32, ptr %5, align 4, !tbaa !3
  %30 = load i64, ptr %6, align 8, !tbaa !11
  %31 = call i32 @H5FD_set_eoa(ptr noundef %28, i32 noundef %29, i64 noundef %30)
  %32 = icmp slt i32 %31, 0
  br i1 %32, label %33, label %52

33:                                               ; preds = %25
  br label %34

34:                                               ; preds = %33
  br label %35

35:                                               ; preds = %34
  br label %36

36:                                               ; preds = %35
  %37 = load i64, ptr @H5E_VFL_g, align 8, !tbaa !11
  %38 = load i64, ptr @H5E_CANTSET_g, align 8, !tbaa !11
  %39 = call i32 (ptr, ptr, i32, i64, i64, ptr, ...) @H5E_printf_stack(ptr noundef @.str, ptr noundef @__func__.H5FD__splitter_set_eoa, i32 noundef 971, i64 noundef %37, i64 noundef %38, ptr noundef @.str.52)
  br label %40

40:                                               ; preds = %36
  br label %41

41:                                               ; preds = %40
  store i8 1, ptr %9, align 1, !tbaa !7
  %42 = load i8, ptr %9, align 1, !tbaa !7, !range !9, !noundef !10
  %43 = trunc i8 %42 to i1
  %44 = zext i1 %43 to i8
  store i8 %44, ptr %9, align 1, !tbaa !7
  br label %45

45:                                               ; preds = %41
  br label %46

46:                                               ; preds = %45
  br label %47

47:                                               ; preds = %46
  store i32 -1, ptr %8, align 4, !tbaa !3
  br label %91

48:                                               ; No predecessors!
  br label %49

49:                                               ; preds = %48
  br label %50

50:                                               ; preds = %49
  br label %51

51:                                               ; preds = %50
  br label %52

52:                                               ; preds = %51, %25
  %53 = load ptr, ptr %7, align 8, !tbaa !40
  %54 = getelementptr inbounds nuw %struct.H5FD_splitter_t, ptr %53, i32 0, i32 4
  %55 = load ptr, ptr %54, align 8, !tbaa !52
  %56 = load i32, ptr %5, align 4, !tbaa !3
  %57 = load i64, ptr %6, align 8, !tbaa !11
  %58 = call i32 @H5FD_set_eoa(ptr noundef %55, i32 noundef %56, i64 noundef %57)
  %59 = icmp slt i32 %58, 0
  br i1 %59, label %60, label %90

60:                                               ; preds = %52
  %61 = load ptr, ptr %7, align 8, !tbaa !40
  %62 = call i32 @H5FD__splitter_log_error(ptr noundef %61, ptr noundef @__func__.H5FD__splitter_set_eoa, ptr noundef @.str.53)
  %63 = load ptr, ptr %7, align 8, !tbaa !40
  %64 = getelementptr inbounds nuw %struct.H5FD_splitter_t, ptr %63, i32 0, i32 2
  %65 = getelementptr inbounds nuw %struct.H5FD_splitter_fapl_t, ptr %64, i32 0, i32 4
  %66 = load i8, ptr %65, align 2, !tbaa !50, !range !9, !noundef !10
  %67 = trunc i8 %66 to i1
  %68 = zext i1 %67 to i32
  %69 = icmp eq i32 0, %68
  br i1 %69, label %70, label %89

70:                                               ; preds = %60
  br label %71

71:                                               ; preds = %70
  br label %72

72:                                               ; preds = %71
  br label %73

73:                                               ; preds = %72
  %74 = load i64, ptr @H5E_VFL_g, align 8, !tbaa !11
  %75 = load i64, ptr @H5E_CANTSET_g, align 8, !tbaa !11
  %76 = call i32 (ptr, ptr, i32, i64, i64, ptr, ...) @H5E_printf_stack(ptr noundef @.str, ptr noundef @__func__.H5FD__splitter_set_eoa, i32 noundef 974, i64 noundef %74, i64 noundef %75, ptr noundef @.str.53)
  br label %77

77:                                               ; preds = %73
  br label %78

78:                                               ; preds = %77
  store i8 1, ptr %9, align 1, !tbaa !7
  %79 = load i8, ptr %9, align 1, !tbaa !7, !range !9, !noundef !10
  %80 = trunc i8 %79 to i1
  %81 = zext i1 %80 to i8
  store i8 %81, ptr %9, align 1, !tbaa !7
  br label %82

82:                                               ; preds = %78
  br label %83

83:                                               ; preds = %82
  br label %84

84:                                               ; preds = %83
  store i32 -1, ptr %8, align 4, !tbaa !3
  br label %91

85:                                               ; No predecessors!
  br label %86

86:                                               ; preds = %85
  br label %87

87:                                               ; preds = %86
  br label %88

88:                                               ; preds = %87
  br label %89

89:                                               ; preds = %88, %60
  br label %90

90:                                               ; preds = %89, %52
  br label %91

91:                                               ; preds = %90, %84, %47
  br label %92

92:                                               ; preds = %91, %17
  %93 = load i32, ptr %8, align 4, !tbaa !3
  call void @llvm.lifetime.end.p0(i64 1, ptr %9) #10
  call void @llvm.lifetime.end.p0(i64 4, ptr %8) #10
  call void @llvm.lifetime.end.p0(i64 8, ptr %7) #10
  ret i32 %93
}